target datalayout = "e-m:e-p270:32:32-p271:32:32-p272:64:64-i64:64-i128:128-f80:128-n8:16:32:64-S128"
target triple = "x86_64-pc-linux-gnu"

%struct.normal_encoding = type { %struct.encoding, [256 x i8], ptr, ptr, ptr, ptr, ptr, ptr, ptr, ptr, ptr }
%struct.encoding = type { [3 x ptr], [2 x ptr], ptr, ptr, ptr, ptr, ptr, ptr, ptr, ptr, ptr, ptr, i32, i8, i8 }
%struct.position = type { i64, i64 }

; Function Attrs: nounwind uwtable
define internal void @normal_updatePosition(ptr noundef %0, ptr noundef %1, ptr noundef %2, ptr noundef %3) #0 {
  %5 = alloca ptr, align 8
  %6 = alloca ptr, align 8
  %7 = alloca ptr, align 8
  %8 = alloca ptr, align 8
  store ptr %0, ptr %5, align 8, !tbaa !45
  store ptr %1, ptr %6, align 8, !tbaa !4
  store ptr %2, ptr %7, align 8, !tbaa !4
  store ptr %3, ptr %8, align 8, !tbaa !57
  br label %9

9:                                                ; preds = %91, %4
  %10 = load ptr, ptr %7, align 8, !tbaa !4
  %11 = load ptr, ptr %6, align 8, !tbaa !4
  %12 = ptrtoint ptr %10 to i64
  %13 = ptrtoint ptr %11 to i64
  %14 = sub i64 %12, %13
  %15 = icmp sge i64 %14, 1
  br i1 %15, label %16, label %92

16:                                               ; preds = %9
  %17 = load ptr, ptr %5, align 8, !tbaa !45
  %18 = getelementptr inbounds nuw %struct.normal_encoding, ptr %17, i32 0, i32 1
  %19 = load ptr, ptr %6, align 8, !tbaa !4
  %20 = load i8, ptr %19, align 1, !tbaa !13
  %21 = zext i8 %20 to i64
  %22 = getelementptr inbounds nuw [256 x i8], ptr %18, i64 0, i64 %21
  %23 = load i8, ptr %22, align 1, !tbaa !13
  %24 = zext i8 %23 to i32
  switch i32 %24, label %84 [
    i32 5, label %25
    i32 6, label %32
    i32 7, label %39
    i32 10, label %46
    i32 9, label %55
  ]

25:                                               ; preds = %16
  %26 = load ptr, ptr %6, align 8, !tbaa !4
  %27 = getelementptr inbounds i8, ptr %26, i64 2
  store ptr %27, ptr %6, align 8, !tbaa !4
  %28 = load ptr, ptr %8, align 8, !tbaa !57
  %29 = getelementptr inbounds nuw %struct.position, ptr %28, i32 0, i32 1
  %30 = load i64, ptr %29, align 8, !tbaa !85
  %31 = add i64 %30, 1
  store i64 %31, ptr %29, align 8, !tbaa !85
  br label %91

32:                                               ; preds = %16
  %33 = load ptr, ptr %6, align 8, !tbaa !4
  %34 = getelementptr inbounds i8, ptr %33, i64 3
  store ptr %34, ptr %6, align 8, !tbaa !4
  %35 = load ptr, ptr %8, align 8, !tbaa !57
  %36 = getelementptr inbounds nuw %struct.position, ptr %35, i32 0, i32 1
  %37 = load i64, ptr %36, align 8, !tbaa !85
  %38 = add i64 %37, 1
  store i64 %38, ptr %36, align 8, !tbaa !85
  br label %91

39:                                               ; preds = %16
  %40 = load ptr, ptr %6, align 8, !tbaa !4
  %41 = getelementptr inbounds i8, ptr %40, i64 4
  store ptr %41, ptr %6, align 8, !tbaa !4
  %42 = load ptr, ptr %8, align 8, !tbaa !57
  %43 = getelementptr inbounds nuw %struct.position, ptr %42, i32 0, i32 1
  %44 = load i64, ptr %43, align 8, !tbaa !85
  %45 = add i64 %44, 1
  store i64 %45, ptr %43, align 8, !tbaa !85
  br label %91

46:                                               ; preds = %16
  %47 = load ptr, ptr %8, align 8, !tbaa !57
  %48 = getelementptr inbounds nuw %struct.position, ptr %47, i32 0, i32 1
  store i64 0, ptr %48, align 8, !tbaa !85
  %49 = load ptr, ptr %8, align 8, !tbaa !57
  %50 = getelementptr inbounds nuw %struct.position, ptr %49, i32 0, i32 0
  %51 = load i64, ptr %50, align 8, !tbaa !87
  %52 = add i64 %51, 1
  store i64 %52, ptr %50, align 8, !tbaa !87
  %53 = load ptr, ptr %6, align 8, !tbaa !4
  %54 = getelementptr inbounds i8, ptr %53, i64 1
  store ptr %54, ptr %6, align 8, !tbaa !4
  br label %91

55:                                               ; preds = %16
  %56 = load ptr, ptr %8, align 8, !tbaa !57
  %57 = getelementptr inbounds nuw %struct.position, ptr %56, i32 0, i32 0
  %58 = load i64, ptr %57, align 8, !tbaa !87
  %59 = add i64 %58, 1
  store i64 %59, ptr %57, align 8, !tbaa !87
  %60 = load ptr, ptr %6, align 8, !tbaa !4
  %61 = getelementptr inbounds i8, ptr %60, i64 1
  store ptr %61, ptr %6, align 8, !tbaa !4
  %62 = load ptr, ptr %7, align 8, !tbaa !4
  %63 = load ptr, ptr %6, align 8, !tbaa !4
  %64 = ptrtoint ptr %62 to i64
  %65 = ptrtoint ptr %63 to i64
  %66 = sub i64 %64, %65
  %67 = icmp sge i64 %66, 1
  br i1 %67, label %68, label %81

68:                                               ; preds = %55
  %69 = load ptr, ptr %5, align 8, !tbaa !45
  %70 = getelementptr inbounds nuw %struct.normal_encoding, ptr %69, i32 0, i32 1
  %71 = load ptr, ptr %6, align 8, !tbaa !4
  %72 = load i8, ptr %71, align 1, !tbaa !13
  %73 = zext i8 %72 to i64
  %74 = getelementptr inbounds nuw [256 x i8], ptr %70, i64 0, i64 %73
  %75 = load i8, ptr %74, align 1, !tbaa !13
  %76 = zext i8 %75 to i32
  %77 = icmp eq i32 %76, 10
  br i1 %77, label %78, label %81

78:                                               ; preds = %68
  %79 = load ptr, ptr %6, align 8, !tbaa !4
  %80 = getelementptr inbounds i8, ptr %79, i64 1
  store ptr %80, ptr %6, align 8, !tbaa !4
  br label %81

81:                                               ; preds = %78, %68, %55
  %82 = load ptr, ptr %8, align 8, !tbaa !57
  %83 = getelementptr inbounds nuw %struct.position, ptr %82, i32 0, i32 1
  store i64 0, ptr %83, align 8, !tbaa !85
  br label %91

84:                                               ; preds = %16
  %85 = load ptr, ptr %6, align 8, !tbaa !4
  %86 = getelementptr inbounds i8, ptr %85, i64 1
  store ptr %86, ptr %6, align 8, !tbaa !4
  %87 = load ptr, ptr %8, align 8, !tbaa !57
  %88 = getelementptr inbounds nuw %struct.position, ptr %87, i32 0, i32 1
  %89 = load i64, ptr %88, align 8, !tbaa !85
  %90 = add i64 %89, 1
  store i64 %90, ptr %88, align 8, !tbaa !85
  br label %91

91:                                               ; preds = %84, %81, %46, %39, %32, %25
  br label %9, !llvm.loop !88

92:                                               ; preds = %9
  ret void
}

; Function Attrs: nounwind uwtable
define internal void @initUpdatePosition(ptr noundef %0, ptr noundef %1, ptr noundef %2, ptr noundef %3) #0 {
  %5 = alloca ptr, align 8
  %6 = alloca ptr, align 8
  %7 = alloca ptr, align 8
  %8 = alloca ptr, align 8
  store ptr %0, ptr %5, align 8, !tbaa !45
  store ptr %1, ptr %6, align 8, !tbaa !4
  store ptr %2, ptr %7, align 8, !tbaa !4
  store ptr %3, ptr %8, align 8, !tbaa !57
  %9 = load ptr, ptr %6, align 8, !tbaa !4
  %10 = load ptr, ptr %7, align 8, !tbaa !4
  %11 = load ptr, ptr %8, align 8, !tbaa !57
  call void @normal_updatePosition(ptr noundef @utf8_encoding, ptr noundef %9, ptr noundef %10, ptr noundef %11)
  ret void
}