; Function Attrs: nofree norecurse nosync nounwind memory(argmem: readwrite) uwtable
define internal void @initUpdatePosition(ptr readnone captures(none) %0, ptr noundef %1, ptr noundef %2, ptr noundef captures(none) %3) #4 {
  %5 = ptrtoint ptr %2 to i64
  %6 = ptrtoint ptr %1 to i64
  %7 = sub i64 %5, %6
  %8 = icmp sgt i64 %7, 0
  br i1 %8, label %.lr.ph.i, label %normal_updatePosition.exit

.lr.ph.i:                                         ; preds = %4
  %9 = getelementptr inbounds nuw i8, ptr %3, i64 8
  br label %10

10:                                               ; preds = %50, %.lr.ph.i
  %.023.i = phi ptr [ %1, %.lr.ph.i ], [ %.1.i, %50 ]
  %11 = load i8, ptr %.023.i, align 1, !tbaa !9
  %12 = zext i8 %11 to i64
  %13 = getelementptr inbounds nuw [256 x i8], ptr getelementptr inbounds nuw (i8, ptr @utf8_encoding, i64 128), i64 0, i64 %12
  %14 = load i8, ptr %13, align 1, !tbaa !9
  switch i8 %14, label %46 [
    i8 5, label %15
    i8 6, label %19
    i8 7, label %23
    i8 10, label %27
    i8 9, label %31
  ]

15:                                               ; preds = %10
  %16 = getelementptr inbounds nuw i8, ptr %.023.i, i64 2
  %17 = load i64, ptr %9, align 8, !tbaa !46
  %18 = add i64 %17, 1
  store i64 %18, ptr %9, align 8, !tbaa !46
  br label %50

19:                                               ; preds = %10
  %20 = getelementptr inbounds nuw i8, ptr %.023.i, i64 3
  %21 = load i64, ptr %9, align 8, !tbaa !46
  %22 = add i64 %21, 1
  store i64 %22, ptr %9, align 8, !tbaa !46
  br label %50

23:                                               ; preds = %10
  %24 = getelementptr inbounds nuw i8, ptr %.023.i, i64 4
  %25 = load i64, ptr %9, align 8, !tbaa !46
  %26 = add i64 %25, 1
  store i64 %26, ptr %9, align 8, !tbaa !46
  br label %50

27:                                               ; preds = %10
  store i64 0, ptr %9, align 8, !tbaa !46
  %28 = load i64, ptr %3, align 8, !tbaa !49
  %29 = add i64 %28, 1
  store i64 %29, ptr %3, align 8, !tbaa !49
  %30 = getelementptr inbounds nuw i8, ptr %.023.i, i64 1
  br label %50

31:                                               ; preds = %10
  %32 = load i64, ptr %3, align 8, !tbaa !49
  %33 = add i64 %32, 1
  store i64 %33, ptr %3, align 8, !tbaa !49
  %34 = getelementptr inbounds nuw i8, ptr %.023.i, i64 1
  %35 = ptrtoint ptr %34 to i64
  %36 = sub i64 %5, %35
  %37 = icmp sgt i64 %36, 0
  br i1 %37, label %38, label %45

38:                                               ; preds = %31
  %39 = load i8, ptr %34, align 1, !tbaa !9
  %40 = zext i8 %39 to i64
  %41 = getelementptr inbounds nuw [256 x i8], ptr getelementptr inbounds nuw (i8, ptr @utf8_encoding, i64 128), i64 0, i64 %40
  %42 = load i8, ptr %41, align 1, !tbaa !9
  %43 = icmp eq i8 %42, 10
  %44 = getelementptr inbounds nuw i8, ptr %.023.i, i64 2
  %spec.select.i = select i1 %43, ptr %44, ptr %34
  br label %45

45:                                               ; preds = %38, %31
  %.2.i = phi ptr [ %34, %31 ], [ %spec.select.i, %38 ]
  store i64 0, ptr %9, align 8, !tbaa !46
  br label %50

46:                                               ; preds = %10
  %47 = getelementptr inbounds nuw i8, ptr %.023.i, i64 1
  %48 = load i64, ptr %9, align 8, !tbaa !46
  %49 = add i64 %48, 1
  store i64 %49, ptr %9, align 8, !tbaa !46
  br label %50

50:                                               ; preds = %46, %45, %27, %23, %19, %15
  %.1.i = phi ptr [ %47, %46 ], [ %.2.i, %45 ], [ %30, %27 ], [ %24, %23 ], [ %20, %19 ], [ %16, %15 ]
  %51 = ptrtoint ptr %.1.i to i64
  %52 = sub i64 %5, %51
  %53 = icmp sgt i64 %52, 0
  br i1 %53, label %10, label %normal_updatePosition.exit, !llvm.loop !50

normal_updatePosition.exit:                       ; preds = %50, %4
  ret void
}